target datalayout = "e-m:e-p270:32:32-p271:32:32-p272:64:64-i64:64-i128:128-f80:128-n8:16:32:64-S128"
target triple = "x86_64-pc-linux-gnu"

@.str = private unnamed_addr constant [109 x i8] c"generated/home/dtcxzyw/WorkSpace/Projects/compilers/llvm-opt-benchmark/bench/hdf5/hdf5/src/H5VLnative_attr.c\00", align 1
@H5E_ARGS_g = external global i64, align 8
@H5E_BADTYPE_g = external global i64, align 8
@.str.4 = private unnamed_addr constant [15 x i8] c"not a datatype\00", align 1
@H5E_ATTR_g = external global i64, align 8
@__func__.H5VL__native_attr_read = private unnamed_addr constant [23 x i8] c"H5VL__native_attr_read\00", align 1
@H5E_READERROR_g = external global i64, align 8
@.str.13 = private unnamed_addr constant [25 x i8] c"unable to read attribute\00", align 1

; Function Attrs: nounwind uwtable
define i32 @H5VL__native_attr_read(ptr noundef %0, i64 noundef %1, ptr noundef %2, i64 noundef %3, ptr noundef %4) #0 {
  %6 = alloca ptr, align 8
  %7 = alloca i64, align 8
  %8 = alloca ptr, align 8
  %9 = alloca i64, align 8
  %10 = alloca ptr, align 8
  %11 = alloca ptr, align 8
  %12 = alloca i32, align 4
  %13 = alloca i8, align 1
  store ptr %0, ptr %6, align 8
  store i64 %1, ptr %7, align 8
  store ptr %2, ptr %8, align 8
  store i64 %3, ptr %9, align 8
  store ptr %4, ptr %10, align 8
  store i8 0, ptr %13, align 1
  %14 = load i64, ptr %7, align 8
  %15 = call ptr @H5I_object_verify(i64 noundef %14, i32 noundef 3)
  store ptr %15, ptr %11, align 8
  %16 = icmp eq ptr null, %15
  br i1 %16, label %17, label %32

17:                                               ; preds = %5
  br label %18

18:                                               ; preds = %17
  br label %19

19:                                               ; preds = %18
  br label %20

20:                                               ; preds = %19
  %21 = load i64, ptr @H5E_ARGS_g, align 8
  %22 = load i64, ptr @H5E_BADTYPE_g, align 8
  %23 = call i32 (ptr, ptr, i32, i64, i64, ptr, ...) @H5E_printf_stack(ptr noundef @.str, ptr noundef @__func__.H5VL__native_attr_read, i32 noundef 207, i64 noundef %21, i64 noundef %22, ptr noundef @.str.4)
  br label %24

24:                                               ; preds = %20
  store i8 1, ptr %13, align 1
  %25 = load i8, ptr %13, align 1
  %26 = trunc i8 %25 to i1
  %27 = zext i1 %26 to i8
  store i8 %27, ptr %13, align 1
  br label %28

28:                                               ; preds = %24
  br label %29

29:                                               ; preds = %28
  store i32 -1, ptr %12, align 4
  br label %55

30:                                               ; No predecessors!
  br label %31

31:                                               ; preds = %30
  br label %32

32:                                               ; preds = %31, %5
  %33 = load i64, ptr %9, align 8
  call void @H5CX_set_dxpl(i64 noundef %33)
  %34 = load ptr, ptr %6, align 8
  %35 = load ptr, ptr %11, align 8
  %36 = load ptr, ptr %8, align 8
  %37 = call i32 @H5A__read(ptr noundef %34, ptr noundef %35, ptr noundef %36)
  store i32 %37, ptr %12, align 4
  %38 = icmp slt i32 %37, 0
  br i1 %38, label %39, label %54

39:                                               ; preds = %32
  br label %40

40:                                               ; preds = %39
  br label %41

41:                                               ; preds = %40
  br label %42

42:                                               ; preds = %41
  %43 = load i64, ptr @H5E_ATTR_g, align 8
  %44 = load i64, ptr @H5E_READERROR_g, align 8
  %45 = call i32 (ptr, ptr, i32, i64, i64, ptr, ...) @H5E_printf_stack(ptr noundef @.str, ptr noundef @__func__.H5VL__native_attr_read, i32 noundef 214, i64 noundef %43, i64 noundef %44, ptr noundef @.str.13)
  br label %46

46:                                               ; preds = %42
  store i8 1, ptr %13, align 1
  %47 = load i8, ptr %13, align 1
  %48 = trunc i8 %47 to i1
  %49 = zext i1 %48 to i8
  store i8 %49, ptr %13, align 1
  br label %50

50:                                               ; preds = %46
  br label %51

51:                                               ; preds = %50
  store i32 -1, ptr %12, align 4
  br label %55

52:                                               ; No predecessors!
  br label %53

53:                                               ; preds = %52
  br label %54

54:                                               ; preds = %53, %32
  br label %55

55:                                               ; preds = %54, %51, %29
  %56 = load i32, ptr %12, align 4
  ret i32 %56
}