; Function Attrs: nounwind uwtable
define range(i32 -1, -2147483648) i32 @H5VL__native_attr_read(ptr noundef %0, i64 noundef %1, ptr noundef %2, i64 noundef %3, ptr nocapture noundef readnone %4) local_unnamed_addr #0 {
  %6 = tail call ptr @H5I_object_verify(i64 noundef %1, i32 noundef 3) #5
  %7 = icmp eq ptr %6, null
  br i1 %7, label %8, label %12

8:                                                ; preds = %5
  %9 = load i64, ptr @H5E_ARGS_g, align 8
  %10 = load i64, ptr @H5E_BADTYPE_g, align 8
  %11 = tail call i32 (ptr, ptr, i32, i64, i64, ptr, ...) @H5E_printf_stack(ptr noundef nonnull @.str, ptr noundef nonnull @__func__.H5VL__native_attr_read, i32 noundef 207, i64 noundef %9, i64 noundef %10, ptr noundef nonnull @.str.4) #5
  br label %19

12:                                               ; preds = %5
  tail call void @H5CX_set_dxpl(i64 noundef %3) #5
  %13 = tail call i32 @H5A__read(ptr noundef %0, ptr noundef nonnull %6, ptr noundef %2) #5
  %14 = icmp slt i32 %13, 0
  br i1 %14, label %15, label %19

15:                                               ; preds = %12
  %16 = load i64, ptr @H5E_ATTR_g, align 8
  %17 = load i64, ptr @H5E_READERROR_g, align 8
  %18 = tail call i32 (ptr, ptr, i32, i64, i64, ptr, ...) @H5E_printf_stack(ptr noundef nonnull @.str, ptr noundef nonnull @__func__.H5VL__native_attr_read, i32 noundef 214, i64 noundef %16, i64 noundef %17, ptr noundef nonnull @.str.13) #5
  br label %19

19:                                               ; preds = %12, %15, %8
  %.0 = phi i32 [ -1, %8 ], [ -1, %15 ], [ %13, %12 ]
  ret i32 %.0
}